target datalayout = "e-m:e-p270:32:32-p271:32:32-p272:64:64-i64:64-i128:128-f80:128-n8:16:32:64-S128"
target triple = "x86_64-pc-linux-gnu"

@.str.1 = private unnamed_addr constant [19 x i8] c"fcntl(%d, F_SETFL)\00", align 1
@.str.3 = private unnamed_addr constant [19 x i8] c"fcntl(%d, F_SETFD)\00", align 1

; Function Attrs: nounwind uwtable
define internal i32 @evutil_fast_socket_closeonexec(i32 noundef %0) #0 {
  %2 = alloca i32, align 4
  %3 = alloca i32, align 4
  store i32 %0, ptr %3, align 4
  %4 = load i32, ptr %3, align 4
  %5 = call i32 (i32, i32, ...) @fcntl(i32 noundef %4, i32 noundef 2, i32 noundef 1)
  %6 = icmp eq i32 %5, -1
  br i1 %6, label %7, label %9

7:                                                ; preds = %1
  %8 = load i32, ptr %3, align 4
  call void (ptr, ...) @event_warn(ptr noundef @.str.3, i32 noundef %8)
  store i32 -1, ptr %2, align 4
  br label %10

9:                                                ; preds = %1
  store i32 0, ptr %2, align 4
  br label %10

10:                                               ; preds = %9, %7
  %11 = load i32, ptr %2, align 4
  ret i32 %11
}

; Function Attrs: nounwind uwtable
define i32 @evutil_closesocket(i32 noundef %0) #0 {
  %2 = alloca i32, align 4
  store i32 %0, ptr %2, align 4
  %3 = load i32, ptr %2, align 4
  %4 = call i32 @close(i32 noundef %3)
  ret i32 %4
}

; Function Attrs: nounwind uwtable
define internal i32 @evutil_fast_socket_nonblocking(i32 noundef %0) #0 {
  %2 = alloca i32, align 4
  %3 = alloca i32, align 4
  store i32 %0, ptr %3, align 4
  %4 = load i32, ptr %3, align 4
  %5 = call i32 (i32, i32, ...) @fcntl(i32 noundef %4, i32 noundef 4, i32 noundef 2048)
  %6 = icmp eq i32 %5, -1
  br i1 %6, label %7, label %9

7:                                                ; preds = %1
  %8 = load i32, ptr %3, align 4
  call void (ptr, ...) @event_warn(ptr noundef @.str.1, i32 noundef %8)
  store i32 -1, ptr %2, align 4
  br label %10

9:                                                ; preds = %1
  store i32 0, ptr %2, align 4
  br label %10

10:                                               ; preds = %9, %7
  %11 = load i32, ptr %2, align 4
  ret i32 %11
}

; Function Attrs: nounwind uwtable
define i32 @evutil_socket_(i32 noundef %0, i32 noundef %1, i32 noundef %2) #0 {
  %4 = alloca i32, align 4
  %5 = alloca i32, align 4
  %6 = alloca i32, align 4
  %7 = alloca i32, align 4
  %8 = alloca i32, align 4
  %9 = alloca i32, align 4
  store i32 %0, ptr %5, align 4
  store i32 %1, ptr %6, align 4
  store i32 %2, ptr %7, align 4
  call void @llvm.lifetime.start.p0(i64 4, ptr %8) #11
  %10 = load i32, ptr %5, align 4
  %11 = load i32, ptr %6, align 4
  %12 = load i32, ptr %7, align 4
  %13 = call i32 @socket(i32 noundef %10, i32 noundef %11, i32 noundef %12) #11
  store i32 %13, ptr %8, align 4
  %14 = load i32, ptr %8, align 4
  %15 = icmp sge i32 %14, 0
  br i1 %15, label %16, label %18

16:                                               ; preds = %3
  %17 = load i32, ptr %8, align 4
  store i32 %17, ptr %4, align 4
  store i32 1, ptr %9, align 4
  br label %59

18:                                               ; preds = %3
  %19 = load i32, ptr %6, align 4
  %20 = and i32 %19, 526336
  %21 = icmp eq i32 %20, 0
  br i1 %21, label %22, label %23

22:                                               ; preds = %18
  store i32 -1, ptr %4, align 4
  store i32 1, ptr %9, align 4
  br label %59

23:                                               ; preds = %18
  br label %24

24:                                               ; preds = %23
  %25 = load i32, ptr %5, align 4
  %26 = load i32, ptr %6, align 4
  %27 = and i32 %26, -526337
  %28 = load i32, ptr %7, align 4
  %29 = call i32 @socket(i32 noundef %25, i32 noundef %27, i32 noundef %28) #11
  store i32 %29, ptr %8, align 4
  %30 = load i32, ptr %8, align 4
  %31 = icmp slt i32 %30, 0
  br i1 %31, label %32, label %33

32:                                               ; preds = %24
  store i32 -1, ptr %4, align 4
  store i32 1, ptr %9, align 4
  br label %59

33:                                               ; preds = %24
  %34 = load i32, ptr %6, align 4
  %35 = and i32 %34, 2048
  %36 = icmp ne i32 %35, 0
  br i1 %36, label %37, label %45

37:                                               ; preds = %33
  %38 = load i32, ptr %8, align 4
  %39 = call i32 @evutil_fast_socket_nonblocking(i32 noundef %38)
  %40 = icmp slt i32 %39, 0
  br i1 %40, label %41, label %44

41:                                               ; preds = %37
  %42 = load i32, ptr %8, align 4
  %43 = call i32 @evutil_closesocket(i32 noundef %42)
  store i32 -1, ptr %4, align 4
  store i32 1, ptr %9, align 4
  br label %59

44:                                               ; preds = %37
  br label %45

45:                                               ; preds = %44, %33
  %46 = load i32, ptr %6, align 4
  %47 = and i32 %46, 524288
  %48 = icmp ne i32 %47, 0
  br i1 %48, label %49, label %57

49:                                               ; preds = %45
  %50 = load i32, ptr %8, align 4
  %51 = call i32 @evutil_fast_socket_closeonexec(i32 noundef %50)
  %52 = icmp slt i32 %51, 0
  br i1 %52, label %53, label %56

53:                                               ; preds = %49
  %54 = load i32, ptr %8, align 4
  %55 = call i32 @evutil_closesocket(i32 noundef %54)
  store i32 -1, ptr %4, align 4
  store i32 1, ptr %9, align 4
  br label %59

56:                                               ; preds = %49
  br label %57

57:                                               ; preds = %56, %45
  %58 = load i32, ptr %8, align 4
  store i32 %58, ptr %4, align 4
  store i32 1, ptr %9, align 4
  br label %59

59:                                               ; preds = %57, %53, %41, %32, %22, %16
  call void @llvm.lifetime.end.p0(i64 4, ptr %8) #11
  %60 = load i32, ptr %4, align 4
  ret i32 %60
}