; Function Attrs: nounwind uwtable
define range(i32 -1, -2147483648) i32 @evutil_socket_(i32 noundef %0, i32 noundef %1, i32 noundef %2) local_unnamed_addr #0 {
  %4 = tail call i32 @socket(i32 noundef %0, i32 noundef %1, i32 noundef %2) #30
  %5 = icmp sgt i32 %4, -1
  br i1 %5, label %evutil_fast_socket_closeonexec.exit, label %6

6:                                                ; preds = %3
  %7 = and i32 %1, 526336
  %8 = icmp eq i32 %7, 0
  br i1 %8, label %evutil_fast_socket_closeonexec.exit, label %9

9:                                                ; preds = %6
  %10 = and i32 %1, -526337
  %11 = tail call i32 @socket(i32 noundef %0, i32 noundef %10, i32 noundef %2) #30
  %12 = icmp slt i32 %11, 0
  br i1 %12, label %evutil_fast_socket_closeonexec.exit, label %13

13:                                               ; preds = %9
  %14 = and i32 %1, 2048
  %.not = icmp eq i32 %14, 0
  br i1 %.not, label %evutil_fast_socket_nonblocking.exit, label %15

15:                                               ; preds = %13
  %16 = tail call i32 (i32, i32, ...) @fcntl(i32 noundef %11, i32 noundef 4, i32 noundef 2048) #30
  %17 = icmp eq i32 %16, -1
  br i1 %17, label %evutil_fast_socket_closeonexec.exit.sink.split, label %evutil_fast_socket_nonblocking.exit

evutil_fast_socket_nonblocking.exit:              ; preds = %15, %13
  %18 = and i32 %1, 524288
  %.not20 = icmp eq i32 %18, 0
  br i1 %.not20, label %evutil_fast_socket_closeonexec.exit, label %19

19:                                               ; preds = %evutil_fast_socket_nonblocking.exit
  %20 = tail call i32 (i32, i32, ...) @fcntl(i32 noundef %11, i32 noundef 2, i32 noundef 1) #30
  %21 = icmp eq i32 %20, -1
  br i1 %21, label %evutil_fast_socket_closeonexec.exit.sink.split, label %evutil_fast_socket_closeonexec.exit

evutil_fast_socket_closeonexec.exit.sink.split:   ; preds = %19, %15
  %.str.3.sink = phi ptr [ @.str.1, %15 ], [ @.str.3, %19 ]
  tail call void (ptr, ...) @event_warn(ptr noundef nonnull %.str.3.sink, i32 noundef %11) #30
  %22 = tail call i32 @close(i32 noundef %11) #30
  br label %evutil_fast_socket_closeonexec.exit

evutil_fast_socket_closeonexec.exit:              ; preds = %evutil_fast_socket_closeonexec.exit.sink.split, %19, %evutil_fast_socket_nonblocking.exit, %9, %6, %3
  %.0 = phi i32 [ %4, %3 ], [ -1, %6 ], [ -1, %9 ], [ %11, %evutil_fast_socket_nonblocking.exit ], [ %11, %19 ], [ -1, %evutil_fast_socket_closeonexec.exit.sink.split ]
  ret i32 %.0
}